#include <math.h>
#include <stdio.h>
#include <stdlib.h>
#include <string.h>

int main()
{
	int n,m,i,a[201];
	scanf("%d %d\n",&n,&m);
	for (i=0;i<n;i++)
	{
		scanf("%d",&a[i]);
	}
	for (i=0;i<n-m;i++)
	{
		a[i+n+m]=a[i];
	}
	for (i=n-m;i<n;i++)
	{
		a[i+m]=a[i];
	}
	for (i=0;i<n;i++)
	{
		a[i]=a[i+n];
	}
	for (i=0;i<n-1;i++)
	{
		printf("%d ",a[i]);
	}
	printf("%d",a[n-1]);
	return 0;
} 